; Function Attrs: mustprogress nofree norecurse nosync nounwind memory(argmem: readwrite) uwtable
define noundef range(i32 1, 0) i32 @_ZN10duckdb_hll9hllPatLenEPhmPl(ptr noundef readonly captures(address) %0, i64 noundef %1, ptr noundef writeonly captures(none) %2) local_unnamed_addr #2 {
  %4 = trunc i64 %1 to i32
  %sext = shl i64 %1, 32
  %5 = ashr exact i64 %sext, 32
  %6 = mul i64 %5, -4132994306676758123
  %7 = xor i64 %6, 2915580697
  %8 = and i32 %4, 7
  %9 = and i32 %4, -8
  %10 = sext i32 %9 to i64
  %11 = getelementptr inbounds i8, ptr %0, i64 %10
  %.not39.i = icmp eq i32 %9, 0
  br i1 %.not39.i, label %._crit_edge.i, label %.lr.ph.i

.lr.ph.i:                                         ; preds = %3, %.lr.ph.i
  %.041.i = phi i64 [ %18, %.lr.ph.i ], [ %7, %3 ]
  %.03840.i = phi ptr [ %19, %.lr.ph.i ], [ %0, %3 ]
  %12 = load i64, ptr %.03840.i, align 8, !tbaa !3
  %13 = mul i64 %12, -4132994306676758123
  %14 = lshr i64 %13, 47
  %15 = xor i64 %14, %13
  %16 = mul i64 %15, -4132994306676758123
  %17 = xor i64 %16, %.041.i
  %18 = mul i64 %17, -4132994306676758123
  %19 = getelementptr inbounds nuw i8, ptr %.03840.i, i64 8
  %.not.i = icmp eq ptr %19, %11
  br i1 %.not.i, label %._crit_edge.i, label %.lr.ph.i, !llvm.loop !7

._crit_edge.i:                                    ; preds = %.lr.ph.i, %3
  %.038.lcssa.i = phi ptr [ %0, %3 ], [ %11, %.lr.ph.i ]
  %.0.lcssa.i = phi i64 [ %7, %3 ], [ %18, %.lr.ph.i ]
  switch i32 %8, label %default.unreachable [
    i32 7, label %20
    i32 6, label %26
    i32 5, label %32
    i32 4, label %38
    i32 3, label %44
    i32 2, label %50
    i32 1, label %56
    i32 0, label %_ZN10duckdb_hll13MurmurHash64AEPKvij.exit
  ]

20:                                               ; preds = %._crit_edge.i
  %21 = getelementptr inbounds nuw i8, ptr %.038.lcssa.i, i64 6
  %22 = load i8, ptr %21, align 1, !tbaa !9
  %23 = zext i8 %22 to i64
  %24 = shl nuw nsw i64 %23, 48
  %25 = xor i64 %24, %.0.lcssa.i
  br label %26

26:                                               ; preds = %20, %._crit_edge.i
  %.2.i = phi i64 [ %.0.lcssa.i, %._crit_edge.i ], [ %25, %20 ]
  %27 = getelementptr inbounds nuw i8, ptr %.038.lcssa.i, i64 5
  %28 = load i8, ptr %27, align 1, !tbaa !9
  %29 = zext i8 %28 to i64
  %30 = shl nuw nsw i64 %29, 40
  %31 = xor i64 %30, %.2.i
  br label %32

32:                                               ; preds = %26, %._crit_edge.i
  %.3.i = phi i64 [ %.0.lcssa.i, %._crit_edge.i ], [ %31, %26 ]
  %33 = getelementptr inbounds nuw i8, ptr %.038.lcssa.i, i64 4
  %34 = load i8, ptr %33, align 1, !tbaa !9
  %35 = zext i8 %34 to i64
  %36 = shl nuw nsw i64 %35, 32
  %37 = xor i64 %36, %.3.i
  br label %38

38:                                               ; preds = %32, %._crit_edge.i
  %.4.i = phi i64 [ %.0.lcssa.i, %._crit_edge.i ], [ %37, %32 ]
  %39 = getelementptr inbounds nuw i8, ptr %.038.lcssa.i, i64 3
  %40 = load i8, ptr %39, align 1, !tbaa !9
  %41 = zext i8 %40 to i64
  %42 = shl nuw nsw i64 %41, 24
  %43 = xor i64 %42, %.4.i
  br label %44

44:                                               ; preds = %38, %._crit_edge.i
  %.5.i = phi i64 [ %.0.lcssa.i, %._crit_edge.i ], [ %43, %38 ]
  %45 = getelementptr inbounds nuw i8, ptr %.038.lcssa.i, i64 2
  %46 = load i8, ptr %45, align 1, !tbaa !9
  %47 = zext i8 %46 to i64
  %48 = shl nuw nsw i64 %47, 16
  %49 = xor i64 %48, %.5.i
  br label %50

50:                                               ; preds = %44, %._crit_edge.i
  %.6.i = phi i64 [ %.0.lcssa.i, %._crit_edge.i ], [ %49, %44 ]
  %51 = getelementptr inbounds nuw i8, ptr %.038.lcssa.i, i64 1
  %52 = load i8, ptr %51, align 1, !tbaa !9
  %53 = zext i8 %52 to i64
  %54 = shl nuw nsw i64 %53, 8
  %55 = xor i64 %54, %.6.i
  br label %56

56:                                               ; preds = %50, %._crit_edge.i
  %.7.i = phi i64 [ %.0.lcssa.i, %._crit_edge.i ], [ %55, %50 ]
  %57 = load i8, ptr %.038.lcssa.i, align 1, !tbaa !9
  %58 = zext i8 %57 to i64
  %59 = xor i64 %.7.i, %58
  %60 = mul i64 %59, -4132994306676758123
  br label %_ZN10duckdb_hll13MurmurHash64AEPKvij.exit

default.unreachable:                              ; preds = %._crit_edge.i
  unreachable

_ZN10duckdb_hll13MurmurHash64AEPKvij.exit:        ; preds = %._crit_edge.i, %56
  %.1.i = phi i64 [ %.0.lcssa.i, %._crit_edge.i ], [ %60, %56 ]
  %61 = lshr i64 %.1.i, 47
  %62 = xor i64 %61, %.1.i
  %63 = mul i64 %62, -4132994306676758123
  %64 = lshr i64 %63, 47
  %65 = xor i64 %64, %63
  %66 = lshr i64 %65, 12
  %67 = or disjoint i64 %66, 4503599627370496
  %68 = and i64 %65, 4096
  %69 = icmp eq i64 %68, 0
  br i1 %69, label %.lr.ph, label %._crit_edge

.lr.ph:                                           ; preds = %_ZN10duckdb_hll13MurmurHash64AEPKvij.exit, %.lr.ph
  %.013 = phi i32 [ %70, %.lr.ph ], [ 1, %_ZN10duckdb_hll13MurmurHash64AEPKvij.exit ]
  %.01112 = phi i64 [ %71, %.lr.ph ], [ 1, %_ZN10duckdb_hll13MurmurHash64AEPKvij.exit ]
  %70 = add nuw nsw i32 %.013, 1
  %71 = shl i64 %.01112, 1
  %72 = and i64 %71, %67
  %73 = icmp eq i64 %72, 0
  br i1 %73, label %.lr.ph, label %._crit_edge, !llvm.loop !10

._crit_edge:                                      ; preds = %.lr.ph, %_ZN10duckdb_hll13MurmurHash64AEPKvij.exit
  %.0.lcssa = phi i32 [ 1, %_ZN10duckdb_hll13MurmurHash64AEPKvij.exit ], [ %70, %.lr.ph ]
  %74 = and i64 %65, 4095
  store i64 %74, ptr %2, align 8, !tbaa !3
  ret i32 %.0.lcssa
}